target datalayout = "e-m:e-p270:32:32-p271:32:32-p272:64:64-i64:64-i128:128-f80:128-n8:16:32:64-S128"
target triple = "x86_64-pc-linux-gnu"

%"class.casadi::Sparsity" = type { %"class.casadi::SharedObject" }
%"class.casadi::SharedObject" = type { ptr }
%"class.casadi::MXNode" = type { %"class.casadi::SharedObjectInternal", i64, %"class.std::vector", %"class.casadi::Sparsity" }
%"class.casadi::SharedObjectInternal" = type { ptr, i64, ptr }
%"class.std::vector" = type { %"struct.std::_Vector_base" }
%"struct.std::_Vector_base" = type { %"struct.std::_Vector_base<casadi::MX, std::allocator<casadi::MX>>::_Vector_impl" }
%"struct.std::_Vector_base<casadi::MX, std::allocator<casadi::MX>>::_Vector_impl" = type { %"struct.std::_Vector_base<casadi::MX, std::allocator<casadi::MX>>::_Vector_impl_data" }
%"struct.std::_Vector_base<casadi::MX, std::allocator<casadi::MX>>::_Vector_impl_data" = type { ptr, ptr, ptr }

; Function Attrs: mustprogress nounwind uwtable
define linkonce_odr hidden void @_ZN6casadi15casadi_sparsifyIddEEvPKT_PT0_PKxx(ptr noundef %0, ptr noundef %1, ptr noundef %2, i64 noundef %3) #5 comdat {
  %5 = alloca ptr, align 8
  %6 = alloca ptr, align 8
  %7 = alloca ptr, align 8
  %8 = alloca i64, align 8
  %9 = alloca i64, align 8
  %10 = alloca i64, align 8
  %11 = alloca i64, align 8
  %12 = alloca i64, align 8
  %13 = alloca ptr, align 8
  %14 = alloca ptr, align 8
  store ptr %0, ptr %5, align 8
  store ptr %1, ptr %6, align 8
  store ptr %2, ptr %7, align 8
  store i64 %3, ptr %8, align 8
  %15 = load ptr, ptr %7, align 8
  %16 = getelementptr inbounds i64, ptr %15, i64 0
  %17 = load i64, ptr %16, align 8
  store i64 %17, ptr %9, align 8
  %18 = load ptr, ptr %7, align 8
  %19 = getelementptr inbounds i64, ptr %18, i64 1
  %20 = load i64, ptr %19, align 8
  store i64 %20, ptr %10, align 8
  %21 = load ptr, ptr %7, align 8
  %22 = getelementptr inbounds i64, ptr %21, i64 2
  store ptr %22, ptr %13, align 8
  %23 = load ptr, ptr %7, align 8
  %24 = load i64, ptr %10, align 8
  %25 = getelementptr inbounds i64, ptr %23, i64 %24
  %26 = getelementptr inbounds i64, ptr %25, i64 3
  store ptr %26, ptr %14, align 8
  %27 = load i64, ptr %8, align 8
  %28 = icmp ne i64 %27, 0
  br i1 %28, label %29, label %69

29:                                               ; preds = %4
  store i64 0, ptr %11, align 8
  br label %30

30:                                               ; preds = %65, %29
  %31 = load i64, ptr %11, align 8
  %32 = load i64, ptr %10, align 8
  %33 = icmp slt i64 %31, %32
  br i1 %33, label %34, label %68

34:                                               ; preds = %30
  %35 = load ptr, ptr %13, align 8
  %36 = load i64, ptr %11, align 8
  %37 = getelementptr inbounds i64, ptr %35, i64 %36
  %38 = load i64, ptr %37, align 8
  store i64 %38, ptr %12, align 8
  br label %39

39:                                               ; preds = %61, %34
  %40 = load i64, ptr %12, align 8
  %41 = load ptr, ptr %13, align 8
  %42 = load i64, ptr %11, align 8
  %43 = add nsw i64 %42, 1
  %44 = getelementptr inbounds i64, ptr %41, i64 %43
  %45 = load i64, ptr %44, align 8
  %46 = icmp ne i64 %40, %45
  br i1 %46, label %47, label %64

47:                                               ; preds = %39
  %48 = load ptr, ptr %5, align 8
  %49 = load i64, ptr %11, align 8
  %50 = load ptr, ptr %14, align 8
  %51 = load i64, ptr %12, align 8
  %52 = getelementptr inbounds i64, ptr %50, i64 %51
  %53 = load i64, ptr %52, align 8
  %54 = load i64, ptr %10, align 8
  %55 = mul nsw i64 %53, %54
  %56 = add nsw i64 %49, %55
  %57 = getelementptr inbounds double, ptr %48, i64 %56
  %58 = load double, ptr %57, align 8
  %59 = load ptr, ptr %6, align 8
  %60 = getelementptr inbounds double, ptr %59, i32 1
  store ptr %60, ptr %6, align 8
  store double %58, ptr %59, align 8
  br label %61

61:                                               ; preds = %47
  %62 = load i64, ptr %12, align 8
  %63 = add nsw i64 %62, 1
  store i64 %63, ptr %12, align 8
  br label %39, !llvm.loop !39

64:                                               ; preds = %39
  br label %65

65:                                               ; preds = %64
  %66 = load i64, ptr %11, align 8
  %67 = add nsw i64 %66, 1
  store i64 %67, ptr %11, align 8
  br label %30, !llvm.loop !40

68:                                               ; preds = %30
  br label %108

69:                                               ; preds = %4
  store i64 0, ptr %11, align 8
  br label %70

70:                                               ; preds = %104, %69
  %71 = load i64, ptr %11, align 8
  %72 = load i64, ptr %10, align 8
  %73 = icmp slt i64 %71, %72
  br i1 %73, label %74, label %107

74:                                               ; preds = %70
  %75 = load ptr, ptr %13, align 8
  %76 = load i64, ptr %11, align 8
  %77 = getelementptr inbounds i64, ptr %75, i64 %76
  %78 = load i64, ptr %77, align 8
  store i64 %78, ptr %12, align 8
  br label %79

79:                                               ; preds = %97, %74
  %80 = load i64, ptr %12, align 8
  %81 = load ptr, ptr %13, align 8
  %82 = load i64, ptr %11, align 8
  %83 = add nsw i64 %82, 1
  %84 = getelementptr inbounds i64, ptr %81, i64 %83
  %85 = load i64, ptr %84, align 8
  %86 = icmp ne i64 %80, %85
  br i1 %86, label %87, label %100

87:                                               ; preds = %79
  %88 = load ptr, ptr %5, align 8
  %89 = load ptr, ptr %14, align 8
  %90 = load i64, ptr %12, align 8
  %91 = getelementptr inbounds i64, ptr %89, i64 %90
  %92 = load i64, ptr %91, align 8
  %93 = getelementptr inbounds double, ptr %88, i64 %92
  %94 = load double, ptr %93, align 8
  %95 = load ptr, ptr %6, align 8
  %96 = getelementptr inbounds double, ptr %95, i32 1
  store ptr %96, ptr %6, align 8
  store double %94, ptr %95, align 8
  br label %97

97:                                               ; preds = %87
  %98 = load i64, ptr %12, align 8
  %99 = add nsw i64 %98, 1
  store i64 %99, ptr %12, align 8
  br label %79, !llvm.loop !41

100:                                              ; preds = %79
  %101 = load i64, ptr %9, align 8
  %102 = load ptr, ptr %5, align 8
  %103 = getelementptr inbounds double, ptr %102, i64 %101
  store ptr %103, ptr %5, align 8
  br label %104

104:                                              ; preds = %100
  %105 = load i64, ptr %11, align 8
  %106 = add nsw i64 %105, 1
  store i64 %106, ptr %11, align 8
  br label %70, !llvm.loop !42

107:                                              ; preds = %70
  br label %108

108:                                              ; preds = %107, %68
  ret void
}

; Function Attrs: mustprogress nounwind uwtable
define linkonce_odr hidden noundef nonnull align 8 dereferenceable(8) ptr @_ZNK6casadi6MXNode8sparsityEv(ptr noundef nonnull align 8 dereferenceable(64) %0) #5 comdat align 2 {
  %2 = alloca ptr, align 8
  store ptr %0, ptr %2, align 8
  %3 = load ptr, ptr %2, align 8
  %4 = getelementptr inbounds %"class.casadi::MXNode", ptr %3, i32 0, i32 3
  ret ptr %4
}

; Function Attrs: mustprogress uwtable
define linkonce_odr noundef i32 @_ZNK6casadi8Sparsify8eval_genIdEEiPPKT_PPS2_PxS6_(ptr noundef nonnull align 8 dereferenceable(64) %0, ptr noundef %1, ptr noundef %2, ptr noundef %3, ptr noundef %4) #4 comdat align 2 {
  %6 = alloca ptr, align 8
  %7 = alloca ptr, align 8
  %8 = alloca ptr, align 8
  %9 = alloca ptr, align 8
  %10 = alloca ptr, align 8
  store ptr %0, ptr %6, align 8
  store ptr %1, ptr %7, align 8
  store ptr %2, ptr %8, align 8
  store ptr %3, ptr %9, align 8
  store ptr %4, ptr %10, align 8
  %11 = load ptr, ptr %6, align 8
  %12 = load ptr, ptr %7, align 8
  %13 = getelementptr inbounds ptr, ptr %12, i64 0
  %14 = load ptr, ptr %13, align 8
  %15 = load ptr, ptr %8, align 8
  %16 = getelementptr inbounds ptr, ptr %15, i64 0
  %17 = load ptr, ptr %16, align 8
  %18 = call noundef nonnull align 8 dereferenceable(8) ptr @_ZNK6casadi6MXNode8sparsityEv(ptr noundef nonnull align 8 dereferenceable(64) %11)
  %19 = call noundef ptr @_ZNK6casadi8SparsitycvPKxEv(ptr noundef nonnull align 8 dereferenceable(8) %18)
  call void @_ZN6casadi15casadi_sparsifyIddEEvPKT_PT0_PKxx(ptr noundef %14, ptr noundef %17, ptr noundef %19, i64 noundef 0)
  ret i32 0
}

; Function Attrs: mustprogress uwtable
define noundef i32 @_ZNK6casadi8Sparsify4evalEPPKdPPdPxS4_(ptr noundef nonnull align 8 dereferenceable(64) %0, ptr noundef %1, ptr noundef %2, ptr noundef %3, ptr noundef %4) unnamed_addr #4 align 2 {
  %6 = alloca ptr, align 8
  %7 = alloca ptr, align 8
  %8 = alloca ptr, align 8
  %9 = alloca ptr, align 8
  %10 = alloca ptr, align 8
  store ptr %0, ptr %6, align 8
  store ptr %1, ptr %7, align 8
  store ptr %2, ptr %8, align 8
  store ptr %3, ptr %9, align 8
  store ptr %4, ptr %10, align 8
  %11 = load ptr, ptr %6, align 8
  %12 = load ptr, ptr %7, align 8
  %13 = load ptr, ptr %8, align 8
  %14 = load ptr, ptr %9, align 8
  %15 = load ptr, ptr %10, align 8
  %16 = call noundef i32 @_ZNK6casadi8Sparsify8eval_genIdEEiPPKT_PPS2_PxS6_(ptr noundef nonnull align 8 dereferenceable(64) %11, ptr noundef %12, ptr noundef %13, ptr noundef %14, ptr noundef %15)
  ret i32 %16
}