; Function Attrs: mustprogress uwtable
define noundef i32 @_ZNK6casadi8Sparsify4evalEPPKdPPdPxS4_(ptr noundef nonnull align 8 dereferenceable(64) %0, ptr nocapture noundef readonly %1, ptr nocapture noundef readonly %2, ptr nocapture readnone %3, ptr nocapture readnone %4) unnamed_addr #3 align 2 {
  %6 = load ptr, ptr %1, align 8
  %7 = load ptr, ptr %2, align 8
  %8 = getelementptr inbounds i8, ptr %0, i64 56
  %9 = tail call noundef ptr @_ZNK6casadi8SparsitycvPKxEv(ptr noundef nonnull align 8 dereferenceable(8) %8)
  %10 = load i64, ptr %9, align 8
  %11 = getelementptr inbounds i8, ptr %9, i64 8
  %12 = load i64, ptr %11, align 8
  %13 = getelementptr inbounds i8, ptr %9, i64 16
  %14 = getelementptr inbounds i64, ptr %9, i64 %12
  %15 = getelementptr inbounds i8, ptr %14, i64 24
  %16 = icmp sgt i64 %12, 0
  br i1 %16, label %.lr.ph63.preheader.i.i, label %_ZNK6casadi8Sparsify8eval_genIdEEiPPKT_PPS2_PxS6_.exit

.lr.ph63.preheader.i.i:                           ; preds = %5
  %.pre67.i.i = load i64, ptr %13, align 8
  br label %.lr.ph63.i.i

.lr.ph63.i.i:                                     ; preds = %._crit_edge.i.i, %.lr.ph63.preheader.i.i
  %17 = phi i64 [ %28, %._crit_edge.i.i ], [ %.pre67.i.i, %.lr.ph63.preheader.i.i ]
  %.062.i.i = phi ptr [ %29, %._crit_edge.i.i ], [ %6, %.lr.ph63.preheader.i.i ]
  %.261.i.i = phi ptr [ %.3.lcssa.i.i, %._crit_edge.i.i ], [ %7, %.lr.ph63.preheader.i.i ]
  %.13960.i.i = phi i64 [ %18, %._crit_edge.i.i ], [ 0, %.lr.ph63.preheader.i.i ]
  %18 = add nuw nsw i64 %.13960.i.i, 1
  %19 = getelementptr inbounds i64, ptr %13, i64 %18
  %20 = load i64, ptr %19, align 8
  %.not4154.i.i = icmp eq i64 %17, %20
  br i1 %.not4154.i.i, label %._crit_edge.i.i, label %.lr.ph57.i.i

.lr.ph57.i.i:                                     ; preds = %.lr.ph63.i.i, %.lr.ph57.i.i
  %.356.i.i = phi ptr [ %25, %.lr.ph57.i.i ], [ %.261.i.i, %.lr.ph63.i.i ]
  %.13755.i.i = phi i64 [ %26, %.lr.ph57.i.i ], [ %17, %.lr.ph63.i.i ]
  %21 = getelementptr inbounds i64, ptr %15, i64 %.13755.i.i
  %22 = load i64, ptr %21, align 8
  %23 = getelementptr inbounds double, ptr %.062.i.i, i64 %22
  %24 = load double, ptr %23, align 8
  %25 = getelementptr inbounds i8, ptr %.356.i.i, i64 8
  store double %24, ptr %.356.i.i, align 8
  %26 = add nsw i64 %.13755.i.i, 1
  %27 = load i64, ptr %19, align 8
  %.not41.i.i = icmp eq i64 %26, %27
  br i1 %.not41.i.i, label %._crit_edge.i.i, label %.lr.ph57.i.i, !llvm.loop !41

._crit_edge.i.i:                                  ; preds = %.lr.ph57.i.i, %.lr.ph63.i.i
  %28 = phi i64 [ %17, %.lr.ph63.i.i ], [ %26, %.lr.ph57.i.i ]
  %.3.lcssa.i.i = phi ptr [ %.261.i.i, %.lr.ph63.i.i ], [ %25, %.lr.ph57.i.i ]
  %29 = getelementptr inbounds double, ptr %.062.i.i, i64 %10
  %exitcond66.not.i.i = icmp eq i64 %18, %12
  br i1 %exitcond66.not.i.i, label %_ZNK6casadi8Sparsify8eval_genIdEEiPPKT_PPS2_PxS6_.exit, label %.lr.ph63.i.i, !llvm.loop !42

_ZNK6casadi8Sparsify8eval_genIdEEiPPKT_PPS2_PxS6_.exit: ; preds = %._crit_edge.i.i, %5
  ret i32 0
}